target datalayout = "e-m:e-p270:32:32-p271:32:32-p272:64:64-i64:64-i128:128-f80:128-n8:16:32:64-S128"
target triple = "x86_64-pc-linux-gnu"

%struct.bio_st = type { ptr, ptr, ptr, ptr, ptr, i32, i32, i32, i32, i32, ptr, ptr, ptr, %struct.CRYPTO_REF_COUNT, i64, i64, %struct.crypto_ex_data_st }
%struct.CRYPTO_REF_COUNT = type { i32 }
%struct.crypto_ex_data_st = type { ptr, ptr }
%struct.bio_buf_mem_st = type { ptr, ptr }
%struct.buf_mem_st = type { i64, ptr, i64, i64 }

@.str = private unnamed_addr constant [32 x i8] c"../openssl/crypto/bio/bss_mem.c\00", align 1
@__func__.mem_write = private unnamed_addr constant [10 x i8] c"mem_write\00", align 1

; Function Attrs: nounwind uwtable
define internal i32 @mem_buf_sync(ptr noundef %0) #0 {
  %2 = alloca ptr, align 8
  %3 = alloca ptr, align 8
  store ptr %0, ptr %2, align 8, !tbaa !11
  %4 = load ptr, ptr %2, align 8, !tbaa !11
  %5 = icmp ne ptr %4, null
  br i1 %5, label %6, label %66

6:                                                ; preds = %1
  %7 = load ptr, ptr %2, align 8, !tbaa !11
  %8 = getelementptr inbounds nuw %struct.bio_st, ptr %7, i32 0, i32 5
  %9 = load i32, ptr %8, align 8, !tbaa !42
  %10 = icmp ne i32 %9, 0
  br i1 %10, label %11, label %66

11:                                               ; preds = %6
  %12 = load ptr, ptr %2, align 8, !tbaa !11
  %13 = getelementptr inbounds nuw %struct.bio_st, ptr %12, i32 0, i32 10
  %14 = load ptr, ptr %13, align 8, !tbaa !13
  %15 = icmp ne ptr %14, null
  br i1 %15, label %16, label %66

16:                                               ; preds = %11
  call void @llvm.lifetime.start.p0(i64 8, ptr %3) #6
  %17 = load ptr, ptr %2, align 8, !tbaa !11
  %18 = getelementptr inbounds nuw %struct.bio_st, ptr %17, i32 0, i32 10
  %19 = load ptr, ptr %18, align 8, !tbaa !13
  store ptr %19, ptr %3, align 8, !tbaa !21
  %20 = load ptr, ptr %3, align 8, !tbaa !21
  %21 = getelementptr inbounds nuw %struct.bio_buf_mem_st, ptr %20, i32 0, i32 1
  %22 = load ptr, ptr %21, align 8, !tbaa !31
  %23 = getelementptr inbounds nuw %struct.buf_mem_st, ptr %22, i32 0, i32 1
  %24 = load ptr, ptr %23, align 8, !tbaa !27
  %25 = load ptr, ptr %3, align 8, !tbaa !21
  %26 = getelementptr inbounds nuw %struct.bio_buf_mem_st, ptr %25, i32 0, i32 0
  %27 = load ptr, ptr %26, align 8, !tbaa !23
  %28 = getelementptr inbounds nuw %struct.buf_mem_st, ptr %27, i32 0, i32 1
  %29 = load ptr, ptr %28, align 8, !tbaa !27
  %30 = icmp ne ptr %24, %29
  br i1 %30, label %31, label %65

31:                                               ; preds = %16
  %32 = load ptr, ptr %3, align 8, !tbaa !21
  %33 = getelementptr inbounds nuw %struct.bio_buf_mem_st, ptr %32, i32 0, i32 0
  %34 = load ptr, ptr %33, align 8, !tbaa !23
  %35 = getelementptr inbounds nuw %struct.buf_mem_st, ptr %34, i32 0, i32 1
  %36 = load ptr, ptr %35, align 8, !tbaa !27
  %37 = load ptr, ptr %3, align 8, !tbaa !21
  %38 = getelementptr inbounds nuw %struct.bio_buf_mem_st, ptr %37, i32 0, i32 1
  %39 = load ptr, ptr %38, align 8, !tbaa !31
  %40 = getelementptr inbounds nuw %struct.buf_mem_st, ptr %39, i32 0, i32 1
  %41 = load ptr, ptr %40, align 8, !tbaa !27
  %42 = load ptr, ptr %3, align 8, !tbaa !21
  %43 = getelementptr inbounds nuw %struct.bio_buf_mem_st, ptr %42, i32 0, i32 1
  %44 = load ptr, ptr %43, align 8, !tbaa !31
  %45 = getelementptr inbounds nuw %struct.buf_mem_st, ptr %44, i32 0, i32 0
  %46 = load i64, ptr %45, align 8, !tbaa !29
  call void @llvm.memmove.p0.p0.i64(ptr align 1 %36, ptr align 1 %41, i64 %46, i1 false)
  %47 = load ptr, ptr %3, align 8, !tbaa !21
  %48 = getelementptr inbounds nuw %struct.bio_buf_mem_st, ptr %47, i32 0, i32 1
  %49 = load ptr, ptr %48, align 8, !tbaa !31
  %50 = getelementptr inbounds nuw %struct.buf_mem_st, ptr %49, i32 0, i32 0
  %51 = load i64, ptr %50, align 8, !tbaa !29
  %52 = load ptr, ptr %3, align 8, !tbaa !21
  %53 = getelementptr inbounds nuw %struct.bio_buf_mem_st, ptr %52, i32 0, i32 0
  %54 = load ptr, ptr %53, align 8, !tbaa !23
  %55 = getelementptr inbounds nuw %struct.buf_mem_st, ptr %54, i32 0, i32 0
  store i64 %51, ptr %55, align 8, !tbaa !29
  %56 = load ptr, ptr %3, align 8, !tbaa !21
  %57 = getelementptr inbounds nuw %struct.bio_buf_mem_st, ptr %56, i32 0, i32 0
  %58 = load ptr, ptr %57, align 8, !tbaa !23
  %59 = getelementptr inbounds nuw %struct.buf_mem_st, ptr %58, i32 0, i32 1
  %60 = load ptr, ptr %59, align 8, !tbaa !27
  %61 = load ptr, ptr %3, align 8, !tbaa !21
  %62 = getelementptr inbounds nuw %struct.bio_buf_mem_st, ptr %61, i32 0, i32 1
  %63 = load ptr, ptr %62, align 8, !tbaa !31
  %64 = getelementptr inbounds nuw %struct.buf_mem_st, ptr %63, i32 0, i32 1
  store ptr %60, ptr %64, align 8, !tbaa !27
  br label %65

65:                                               ; preds = %31, %16
  call void @llvm.lifetime.end.p0(i64 8, ptr %3) #6
  br label %66

66:                                               ; preds = %65, %11, %6, %1
  ret i32 0
}

; Function Attrs: nounwind uwtable
define internal i32 @mem_write(ptr noundef %0, ptr noundef %1, i32 noundef %2) #0 {
  %4 = alloca i32, align 4
  %5 = alloca ptr, align 8
  %6 = alloca ptr, align 8
  %7 = alloca i32, align 4
  %8 = alloca i32, align 4
  %9 = alloca i32, align 4
  %10 = alloca ptr, align 8
  %11 = alloca i32, align 4
  store ptr %0, ptr %5, align 8, !tbaa !11
  store ptr %1, ptr %6, align 8, !tbaa !33
  store i32 %2, ptr %7, align 4, !tbaa !7
  call void @llvm.lifetime.start.p0(i64 4, ptr %8) #6
  store i32 -1, ptr %8, align 4, !tbaa !7
  call void @llvm.lifetime.start.p0(i64 4, ptr %9) #6
  call void @llvm.lifetime.start.p0(i64 8, ptr %10) #6
  %12 = load ptr, ptr %5, align 8, !tbaa !11
  %13 = getelementptr inbounds nuw %struct.bio_st, ptr %12, i32 0, i32 10
  %14 = load ptr, ptr %13, align 8, !tbaa !13
  store ptr %14, ptr %10, align 8, !tbaa !21
  %15 = load ptr, ptr %5, align 8, !tbaa !11
  %16 = getelementptr inbounds nuw %struct.bio_st, ptr %15, i32 0, i32 7
  %17 = load i32, ptr %16, align 8, !tbaa !34
  %18 = and i32 %17, 512
  %19 = icmp ne i32 %18, 0
  br i1 %19, label %20, label %21

20:                                               ; preds = %3
  call void @ERR_new()
  call void @ERR_set_debug(ptr noundef @.str, i32 noundef 221, ptr noundef @__func__.mem_write)
  call void (i32, i32, ptr, ...) @ERR_set_error(i32 noundef 32, i32 noundef 126, ptr noundef null)
  br label %68

21:                                               ; preds = %3
  %22 = load ptr, ptr %5, align 8, !tbaa !11
  call void @BIO_clear_flags(ptr noundef %22, i32 noundef 15)
  %23 = load i32, ptr %7, align 4, !tbaa !7
  %24 = icmp eq i32 %23, 0
  br i1 %24, label %25, label %26

25:                                               ; preds = %21
  store i32 0, ptr %4, align 4
  store i32 1, ptr %11, align 4
  br label %70

26:                                               ; preds = %21
  %27 = load ptr, ptr %6, align 8, !tbaa !33
  %28 = icmp eq ptr %27, null
  br i1 %28, label %29, label %30

29:                                               ; preds = %26
  call void @ERR_new()
  call void @ERR_set_debug(ptr noundef @.str, i32 noundef 228, ptr noundef @__func__.mem_write)
  call void (i32, i32, ptr, ...) @ERR_set_error(i32 noundef 32, i32 noundef 786690, ptr noundef null)
  br label %68

30:                                               ; preds = %26
  %31 = load ptr, ptr %10, align 8, !tbaa !21
  %32 = getelementptr inbounds nuw %struct.bio_buf_mem_st, ptr %31, i32 0, i32 1
  %33 = load ptr, ptr %32, align 8, !tbaa !31
  %34 = getelementptr inbounds nuw %struct.buf_mem_st, ptr %33, i32 0, i32 0
  %35 = load i64, ptr %34, align 8, !tbaa !29
  %36 = trunc i64 %35 to i32
  store i32 %36, ptr %9, align 4, !tbaa !7
  %37 = load ptr, ptr %5, align 8, !tbaa !11
  %38 = call i32 @mem_buf_sync(ptr noundef %37)
  %39 = load ptr, ptr %10, align 8, !tbaa !21
  %40 = getelementptr inbounds nuw %struct.bio_buf_mem_st, ptr %39, i32 0, i32 0
  %41 = load ptr, ptr %40, align 8, !tbaa !23
  %42 = load i32, ptr %9, align 4, !tbaa !7
  %43 = load i32, ptr %7, align 4, !tbaa !7
  %44 = add nsw i32 %42, %43
  %45 = sext i32 %44 to i64
  %46 = call i64 @BUF_MEM_grow_clean(ptr noundef %41, i64 noundef %45)
  %47 = icmp eq i64 %46, 0
  br i1 %47, label %48, label %49

48:                                               ; preds = %30
  br label %68

49:                                               ; preds = %30
  %50 = load ptr, ptr %10, align 8, !tbaa !21
  %51 = getelementptr inbounds nuw %struct.bio_buf_mem_st, ptr %50, i32 0, i32 0
  %52 = load ptr, ptr %51, align 8, !tbaa !23
  %53 = getelementptr inbounds nuw %struct.buf_mem_st, ptr %52, i32 0, i32 1
  %54 = load ptr, ptr %53, align 8, !tbaa !27
  %55 = load i32, ptr %9, align 4, !tbaa !7
  %56 = sext i32 %55 to i64
  %57 = getelementptr inbounds i8, ptr %54, i64 %56
  %58 = load ptr, ptr %6, align 8, !tbaa !33
  %59 = load i32, ptr %7, align 4, !tbaa !7
  %60 = sext i32 %59 to i64
  call void @llvm.memcpy.p0.p0.i64(ptr align 1 %57, ptr align 1 %58, i64 %60, i1 false)
  %61 = load ptr, ptr %10, align 8, !tbaa !21
  %62 = getelementptr inbounds nuw %struct.bio_buf_mem_st, ptr %61, i32 0, i32 1
  %63 = load ptr, ptr %62, align 8, !tbaa !31
  %64 = load ptr, ptr %10, align 8, !tbaa !21
  %65 = getelementptr inbounds nuw %struct.bio_buf_mem_st, ptr %64, i32 0, i32 0
  %66 = load ptr, ptr %65, align 8, !tbaa !23
  call void @llvm.memcpy.p0.p0.i64(ptr align 8 %63, ptr align 8 %66, i64 32, i1 false), !tbaa.struct !32
  %67 = load i32, ptr %7, align 4, !tbaa !7
  store i32 %67, ptr %8, align 4, !tbaa !7
  br label %68

68:                                               ; preds = %49, %48, %29, %20
  %69 = load i32, ptr %8, align 4, !tbaa !7
  store i32 %69, ptr %4, align 4
  store i32 1, ptr %11, align 4
  br label %70

70:                                               ; preds = %68, %25
  call void @llvm.lifetime.end.p0(i64 8, ptr %10) #6
  call void @llvm.lifetime.end.p0(i64 4, ptr %9) #6
  call void @llvm.lifetime.end.p0(i64 4, ptr %8) #6
  %71 = load i32, ptr %4, align 4
  ret i32 %71
}