; Function Attrs: nounwind uwtable
define internal noundef i32 @mem_write(ptr noundef %0, ptr noundef readonly captures(address_is_null) %1, i32 noundef %2) #1 {
  %4 = getelementptr inbounds nuw i8, ptr %0, i64 64
  %5 = load ptr, ptr %4, align 8, !tbaa !3
  %6 = getelementptr inbounds nuw i8, ptr %0, i64 48
  %7 = load i32, ptr %6, align 8, !tbaa !28
  %8 = and i32 %7, 512
  %.not = icmp eq i32 %8, 0
  br i1 %.not, label %10, label %9

9:                                                ; preds = %3
  tail call void @ERR_new() #7
  tail call void @ERR_set_debug(ptr noundef nonnull @.str, i32 noundef 221, ptr noundef nonnull @__func__.mem_write) #7
  tail call void (i32, i32, ptr, ...) @ERR_set_error(i32 noundef 32, i32 noundef 126, ptr noundef null) #7
  br label %54

10:                                               ; preds = %3
  tail call void @BIO_clear_flags(ptr noundef nonnull %0, i32 noundef 15) #7
  %11 = icmp eq i32 %2, 0
  br i1 %11, label %54, label %12

12:                                               ; preds = %10
  %13 = icmp eq ptr %1, null
  br i1 %13, label %14, label %15

14:                                               ; preds = %12
  tail call void @ERR_new() #7
  tail call void @ERR_set_debug(ptr noundef nonnull @.str, i32 noundef 228, ptr noundef nonnull @__func__.mem_write) #7
  tail call void (i32, i32, ptr, ...) @ERR_set_error(i32 noundef 32, i32 noundef 786690, ptr noundef null) #7
  br label %54

15:                                               ; preds = %12
  %16 = getelementptr inbounds nuw i8, ptr %5, i64 8
  %17 = load ptr, ptr %16, align 8, !tbaa !24
  %18 = load i64, ptr %17, align 8, !tbaa !22
  %19 = trunc i64 %18 to i32
  %20 = getelementptr inbounds nuw i8, ptr %0, i64 40
  %21 = load i32, ptr %20, align 8, !tbaa !30
  %.not16.i = icmp eq i32 %21, 0
  br i1 %.not16.i, label %mem_buf_sync.exit, label %22

22:                                               ; preds = %15
  %23 = load ptr, ptr %4, align 8, !tbaa !3
  %.not17.i = icmp eq ptr %23, null
  br i1 %.not17.i, label %mem_buf_sync.exit, label %24

24:                                               ; preds = %22
  %25 = getelementptr inbounds nuw i8, ptr %23, i64 8
  %26 = load ptr, ptr %25, align 8, !tbaa !24
  %27 = getelementptr inbounds nuw i8, ptr %26, i64 8
  %28 = load ptr, ptr %27, align 8, !tbaa !20
  %29 = load ptr, ptr %23, align 8, !tbaa !17
  %30 = getelementptr inbounds nuw i8, ptr %29, i64 8
  %31 = load ptr, ptr %30, align 8, !tbaa !20
  %.not18.i = icmp eq ptr %28, %31
  br i1 %.not18.i, label %mem_buf_sync.exit, label %32

32:                                               ; preds = %24
  %33 = load i64, ptr %26, align 8, !tbaa !22
  tail call void @llvm.memmove.p0.p0.i64(ptr align 1 %31, ptr align 1 %28, i64 %33, i1 false)
  %34 = load ptr, ptr %25, align 8, !tbaa !24
  %35 = load i64, ptr %34, align 8, !tbaa !22
  %36 = load ptr, ptr %23, align 8, !tbaa !17
  store i64 %35, ptr %36, align 8, !tbaa !22
  %37 = getelementptr inbounds nuw i8, ptr %36, i64 8
  %38 = load ptr, ptr %37, align 8, !tbaa !20
  %39 = getelementptr inbounds nuw i8, ptr %34, i64 8
  store ptr %38, ptr %39, align 8, !tbaa !20
  br label %mem_buf_sync.exit

mem_buf_sync.exit:                                ; preds = %15, %22, %24, %32
  %40 = load ptr, ptr %5, align 8, !tbaa !17
  %41 = add nsw i32 %2, %19
  %42 = sext i32 %41 to i64
  %43 = tail call i64 @BUF_MEM_grow_clean(ptr noundef %40, i64 noundef %42) #7
  %44 = icmp eq i64 %43, 0
  br i1 %44, label %54, label %45

45:                                               ; preds = %mem_buf_sync.exit
  %46 = load ptr, ptr %5, align 8, !tbaa !17
  %47 = getelementptr inbounds nuw i8, ptr %46, i64 8
  %48 = load ptr, ptr %47, align 8, !tbaa !20
  %sext = shl i64 %18, 32
  %49 = ashr exact i64 %sext, 32
  %50 = getelementptr inbounds i8, ptr %48, i64 %49
  %51 = sext i32 %2 to i64
  tail call void @llvm.memcpy.p0.p0.i64(ptr align 1 %50, ptr nonnull align 1 %1, i64 %51, i1 false)
  %52 = load ptr, ptr %16, align 8, !tbaa !24
  %53 = load ptr, ptr %5, align 8, !tbaa !17
  tail call void @llvm.memcpy.p0.p0.i64(ptr noundef nonnull align 8 dereferenceable(32) %52, ptr noundef nonnull align 8 dereferenceable(32) %53, i64 32, i1 false), !tbaa.struct !25
  br label %54

54:                                               ; preds = %9, %14, %45, %mem_buf_sync.exit, %10
  %.0 = phi i32 [ 0, %10 ], [ -1, %9 ], [ -1, %14 ], [ -1, %mem_buf_sync.exit ], [ %2, %45 ]
  ret i32 %.0
}